MPASM 5.71  /HOME/GARTHMADDEN/PIC_CODE/ADC_L   1-26-2017  21:48:43         PAGE  1


LOC  OBJECT CODE     LINE SOURCE TEXT
  VALUE

                      00001     #include <p12lf1822.inc>
                      00001         LIST
                      00002 
                      00003 ;==========================================================================
                      00004 ; Build date : Nov 17 2016
                      00005 ;  MPASM PIC12LF1822 processor include
                      00006 ; 
                      00007 ;  (c) Copyright 1999-2016 Microchip Technology, All rights reserved
                      00008 ;==========================================================================
                      00009 
                      01040         LIST
                      00002     
                      00003     ERRORLEVEL  -302
                      00004     ERRORLEVEL  -312
                      00005     
  0000                00006     GLOBAL  THIS
  0000                00007     GLOBAL  THAT
  0000                00008     GLOBAL  COUNT5
  0000                00009     GLOBAL  COUNT4      
  0000                00010     GLOBAL  COUNT3
  0000                00011     GLOBAL  ANSWER      
  0000                00012     GLOBAL  ANSWER2     
  0000                00013     GLOBAL  TEMP
  0000                00014     GLOBAL  TEST1
  0000                00015     GLOBAL  TEST2
  0000                00016     GLOBAL  TEMP2
  0000                00017     GLOBAL  NANSWER
  0000                00018     GLOBAL  ONE
  0000                00019     GLOBAL  TWO
  0000                00020     GLOBAL  THREE
                      00021     
                      00022         UDATA   
                      00023         
0000                  00024 THIS    RES 1
0001                  00025 THAT    RES 1
0002                  00026 COUNT4  RES 1
0003                  00027 COUNT3  RES 1
0004                  00028 ANSWER  RES 1
0005                  00029 ANSWER2 RES 1
0006                  00030 TEMP    RES 1   
0007                  00031 COUNT5  RES 1
0008                  00032 TEST1   RES 1
0009                  00033 TEST2   RES 1
000A                  00034 TEMP2   RES 1
000B                  00035 NANSWER RES 1
000C                  00036 ONE     RES 1
000D                  00037 TWO     RES 1
000E                  00038 THREE   RES 1
                      00039     
  0000                00040     EXTERN  ADC_LOOKUP_FIRST
  0000                00041     EXTERN  ADC_LOOKUP_SECOND
  0000                00042     EXTERN  ADC_LOOKUP_THIRD
  0000                00043     EXTERN  TEST
MPASM 5.71  /HOME/GARTHMADDEN/PIC_CODE/ADC_L   1-26-2017  21:48:43         PAGE  2


LOC  OBJECT CODE     LINE SOURCE TEXT
  VALUE

  0000                00044     EXTERN  DELAY
  0000                00045     EXTERN  LCD_WRITE
  0000                00046     EXTERN  USART_INIT
  0000                00047     EXTERN  ADC_INIT
                      00048   
                      00049   
                      00050     RADIX   DEC
                      00051 
                      00052         
                      00053 RES_VECT  CODE    0x0000            ; processor reset vector
                      00054   
0000   3432 3435 3435 00055     DT  "255"
0003   2???           00056     GOTO    START                   ; go to beginning of program
                      00057 
                      00058 
                      00059 
                      00060 MAIN_PROG CODE                      ; let linker place main program
                      00061 
0000                  00062 START
                      00063    
0000   2???           00064     CALL        DELAY               ; GIVE LCD TIME TO TURN ON
0001   2???           00065     CALL        USART_INIT          ; SET UP USART
                      00066     
0002                  00067 WRITE
                      00068 
                      00069     
0002   0023           00070     BANKSEL     TXREG
0003   300C           00071     MOVLW       D'12'               ; CLEAR SCREEN RETURN TO LINE 0
0004   009A           00072     MOVWF       TXREG
                      00073     
0005   2???           00074     CALL        DELAY               ; 5 MS DELAY NEEDED BY LCD AFTER CLEAR
0006   2???           00075     CALL        DELAY
                      00076     
0007   0023           00077     BANKSEL     TXREG   
0008   3011           00078     MOVLW       D'17'       ; TURN ON BACKLIGHT
0009   009A           00079     MOVWF       TXREG
                      00080     
                      00081     
                      00082     
000A   2???           00083     CALL        LCD_WRITE
                      00084 
                      00085     
000B                  00086 ADC_COLLECT
                      00087     
000B   0064           00088     CLRWDT
000C   2???           00089     CALL        ADC_INIT    ; GET ADC RESULT IN ADRESH
                      00090     
000D   0021           00091     BANKSEL     ADRESH
000E   081C           00092     MOVF        ADRESH, W   ; STORE ADRESH IN W
000F   002?           00093     BANKSEL     ANSWER
0010   00??           00094     MOVWF       ANSWER      ; MOVE W TO ANSWER
                      00095     
0011   30??           00096     MOVLW       HIGH ADC_LOOKUP_FIRST
MPASM 5.71  /HOME/GARTHMADDEN/PIC_CODE/ADC_L   1-26-2017  21:48:43         PAGE  3


LOC  OBJECT CODE     LINE SOURCE TEXT
  VALUE

0012   008A           00097     MOVWF       PCLATH
                      00098     
0013   08??           00099     MOVF        ANSWER, W
0014   2???           00100     CALL        ADC_LOOKUP_FIRST
                      00101    
0015   002?           00102     BANKSEL     ONE
0016   00??           00103     MOVWF       ONE
                      00104    
0017   30??           00105     MOVLW       HIGH ADC_LOOKUP_SECOND
0018   008A           00106     MOVWF       PCLATH
                      00107     
0019   08??           00108     MOVF        ANSWER, W
001A   2???           00109     CALL        ADC_LOOKUP_SECOND
                      00110     
001B   002?           00111     BANKSEL     TWO
001C   00??           00112     MOVWF       TWO
                      00113     
001D   30??           00114     MOVLW       HIGH ADC_LOOKUP_THIRD
001E   008A           00115     MOVWF       PCLATH
                      00116     
001F   08??           00117     MOVF        ANSWER, W
0020   2???           00118     CALL        ADC_LOOKUP_THIRD
                      00119     
0021   002?           00120     BANKSEL     THREE
0022   00??           00121     MOVWF       THREE
                      00122     
0023                  00123 CURSOR   
                      00124 
0023   2???           00125     CALL        USART_INIT
                      00126     
0024   0023           00127     BANKSEL     TXREG
0025   3087           00128     MOVLW       D'135'      ;135 LINE 0 POSITION 7
0026   009A           00129     MOVWF       TXREG
                      00130     
0027   2???           00131     CALL        TEST
0028   2???           00132     CALL        DELAY
                      00133     
                      00134     
0029   002?           00135     BANKSEL     ONE
002A   08??           00136     MOVF        ONE,    W   ; ONE
002B   0023           00137     BANKSEL     TXREG
002C   009A           00138     MOVWF       TXREG
                      00139     
002D   2???           00140     CALL        TEST
002E   2???           00141     CALL        DELAY
                      00142     
002F   0023           00143     BANKSEL     TXREG
0030   302E           00144     MOVLW       D'46'       ; DECIMAL POINT .
0031   009A           00145     MOVWF       TXREG
                      00146     
0032   2???           00147     CALL        TEST
0033   2???           00148     CALL        DELAY
                      00149     
MPASM 5.71  /HOME/GARTHMADDEN/PIC_CODE/ADC_L   1-26-2017  21:48:43         PAGE  4


LOC  OBJECT CODE     LINE SOURCE TEXT
  VALUE

0034   002?           00150     BANKSEL     TWO
0035   08??           00151     MOVF        TWO,    W   ; TWO
0036   0023           00152     BANKSEL     TXREG
0037   009A           00153     MOVWF       TXREG
                      00154     
0038   2???           00155     CALL        TEST
0039   2???           00156     CALL        DELAY
                      00157     
003A   002?           00158     BANKSEL     THREE
003B   08??           00159     MOVF        THREE,  W   ; THREE
003C   0023           00160     BANKSEL     TXREG
003D   009A           00161     MOVWF       TXREG
                      00162     
003E   2???           00163     CALL        TEST
003F   2???           00164     CALL        DELAY
                      00165     
0040   2???           00166     GOTO        ADC_COLLECT
                      00167     
                      00168         
                      00169     END
MPASM 5.71  /HOME/GARTHMADDEN/PIC_CODE/ADC_L   1-26-2017  21:48:43         PAGE  5


SYMBOL TABLE
  LABEL                             VALUE 

ABDEN                             00000000
ABDOVF                            00000007
ACKDT                             00000005
ACKEN                             00000004
ACKSTAT                           00000006
ACKTIM                            00000007
ADCON0                            0000009D
ADCON1                            0000009E
ADCS0                             00000004
ADCS1                             00000005
ADCS2                             00000006
ADC_COLLECT                       0000000B
ADC_INIT                          00000000
ADC_LOOKUP_FIRST                  00000000
ADC_LOOKUP_SECOND                 00000000
ADC_LOOKUP_THIRD                  00000000
ADDEN                             00000003
ADFM                              00000007
ADFVR0                            00000000
ADFVR1                            00000001
ADGO                              00000001
ADIE                              00000006
ADIF                              00000006
ADON                              00000000
ADPREF0                           00000000
ADPREF1                           00000001
ADRES                             0000009B
ADRESH                            0000009C
ADRESL                            0000009B
AHEN                              00000001
AN0                               00000000
AN1                               00000001
AN2                               00000002
AN3                               00000004
ANSA0                             00000000
ANSA1                             00000001
ANSA2                             00000002
ANSA4                             00000004
ANSELA                            0000018C
ANSWER                            00000004
ANSWER2                           00000005
APFCON                            0000011D
APFCON0                           0000011D
BAUDCON                           0000019F
BCL1IE                            00000003
BCL1IF                            00000003
BF                                00000000
BOEN                              00000004
BORCON                            00000116
BORRDY                            00000000
BRG16                             00000003
BRGH                              00000002
BSR                               00000008
MPASM 5.71  /HOME/GARTHMADDEN/PIC_CODE/ADC_L   1-26-2017  21:48:43         PAGE  6


SYMBOL TABLE
  LABEL                             VALUE 

BSR0                              00000000
BSR1                              00000001
BSR2                              00000002
BSR3                              00000003
BSR4                              00000004
BSR_SHAD                          00000FE6
C                                 00000000
C1HYS                             00000001
C1IE                              00000005
C1IF                              00000005
C1IN0N                            00000001
C1IN1N                            00000004
C1INP                             00000000
C1INTN                            00000006
C1INTP                            00000007
C1NCH0                            00000000
C1OE                              00000005
C1ON                              00000007
C1OUT_CM1CON0                     00000006
C1OUT_PORTA                       00000002
C1PCH0                            00000004
C1PCH1                            00000005
C1POL                             00000004
C1SP                              00000002
C1SYNC                            00000000
CCP1AS                            00000295
CCP1AS0                           00000004
CCP1AS1                           00000005
CCP1AS2                           00000006
CCP1ASE                           00000007
CCP1CON                           00000293
CCP1IE                            00000002
CCP1IF                            00000002
CCP1M0                            00000000
CCP1M1                            00000001
CCP1M2                            00000002
CCP1M3                            00000003
CCP1SEL                           00000000
CCPR1                             00000291
CCPR1H                            00000292
CCPR1L                            00000291
CDAFVR0                           00000002
CDAFVR1                           00000003
CFGS                              00000006
CHS0                              00000002
CHS1                              00000003
CHS2                              00000004
CHS3                              00000005
CHS4                              00000006
CKE                               00000006
CKP                               00000004
CLKIN                             00000005
CLKOUT                            00000004
MPASM 5.71  /HOME/GARTHMADDEN/PIC_CODE/ADC_L   1-26-2017  21:48:43         PAGE  7


SYMBOL TABLE
  LABEL                             VALUE 

CLKR                              00000004
CLKRCON                           0000039A
CLKRDC0                           00000003
CLKRDC1                           00000004
CLKRDIV0                          00000000
CLKRDIV1                          00000001
CLKRDIV2                          00000002
CLKREN                            00000007
CLKROE                            00000006
CLKRSLR                           00000005
CM1CON0                           00000111
CM1CON1                           00000112
CMOUT                             00000115
COUNT3                            00000003
COUNT4                            00000002
COUNT5                            00000007
CPS0                              00000000
CPS1                              00000001
CPS2                              00000002
CPS3                              00000004
CPSCH0                            00000000
CPSCH1                            00000001
CPSCON0                           0000001E
CPSCON1                           0000001F
CPSON                             00000007
CPSOUT                            00000001
CPSRM                             00000006
CPSRNG0                           00000002
CPSRNG1                           00000003
CREN                              00000004
CSRC                              00000007
CURSOR                            00000023
C_SHAD                            00000000
DACCON0                           00000118
DACCON1                           00000119
DACEN                             00000007
DACLPS                            00000006
DACOE                             00000005
DACOUT                            00000000
DACPSS0                           00000002
DACPSS1                           00000003
DACR0                             00000000
DACR1                             00000001
DACR2                             00000002
DACR3                             00000003
DACR4                             00000004
DC                                00000001
DC1B0                             00000004
DC1B1                             00000005
DC_SHAD                           00000001
DELAY                             00000000
DHEN                              00000000
D_NOT_A                           00000005
MPASM 5.71  /HOME/GARTHMADDEN/PIC_CODE/ADC_L   1-26-2017  21:48:43         PAGE  8


SYMBOL TABLE
  LABEL                             VALUE 

ECCP1AS                           00000295
EEADR                             00000191
EEADRH                            00000192
EEADRL                            00000191
EECON1                            00000195
EECON2                            00000196
EEDAT                             00000193
EEDATH                            00000194
EEDATL                            00000193
EEIE                              00000004
EEIF                              00000004
EEPGD                             00000007
F                                 00000001
FERR                              00000002
FLT0                              00000002
FREE                              00000004
FSR0                              00000004
FSR0H                             00000005
FSR0H_SHAD                        00000FE9
FSR0L                             00000004
FSR0L_SHAD                        00000FE8
FSR1                              00000006
FSR1H                             00000007
FSR1H_SHAD                        00000FEB
FSR1L                             00000006
FSR1L_SHAD                        00000FEA
FVRCON                            00000117
FVREN                             00000007
FVRRDY                            00000006
GCEN                              00000007
GIE                               00000007
GO                                00000001
GO_NOT_DONE                       00000001
HFIOFL                            00000003
HFIOFR                            00000004
HFIOFS                            00000000
INDF0                             00000000
INDF1                             00000001
INTCON                            0000000B
INTE                              00000004
INTEDG                            00000006
INTF                              00000001
IOCAF                             00000393
IOCAF0                            00000000
IOCAF1                            00000001
IOCAF2                            00000002
IOCAF3                            00000003
IOCAF4                            00000004
IOCAF5                            00000005
IOCAN                             00000392
IOCAN0                            00000000
IOCAN1                            00000001
IOCAN2                            00000002
MPASM 5.71  /HOME/GARTHMADDEN/PIC_CODE/ADC_L   1-26-2017  21:48:43         PAGE  9


SYMBOL TABLE
  LABEL                             VALUE 

IOCAN3                            00000003
IOCAN4                            00000004
IOCAN5                            00000005
IOCAP                             00000391
IOCAP0                            00000000
IOCAP1                            00000001
IOCAP2                            00000002
IOCAP3                            00000003
IOCAP4                            00000004
IOCAP5                            00000005
IOCIE                             00000003
IOCIF                             00000000
IRCF0                             00000003
IRCF1                             00000004
IRCF2                             00000005
IRCF3                             00000006
LATA                              0000010C
LATA0                             00000000
LATA1                             00000001
LATA2                             00000002
LATA4                             00000004
LATA5                             00000005
LCD_WRITE                         00000000
LFIOFR                            00000001
LWLO                              00000005
MC1OUT                            00000000
MDBIT                             00000000
MDCARH                            0000039F
MDCARL                            0000039E
MDCH0                             00000000
MDCH1                             00000001
MDCH2                             00000002
MDCH3                             00000003
MDCHODIS                          00000007
MDCHPOL                           00000006
MDCHSYNC                          00000005
MDCIN1                            00000002
MDCIN2                            00000004
MDCL0                             00000000
MDCL1                             00000001
MDCL2                             00000002
MDCL3                             00000003
MDCLODIS                          00000007
MDCLPOL                           00000006
MDCLSYNC                          00000005
MDCON                             0000039C
MDEN                              00000007
MDMIN                             00000001
MDMS0                             00000000
MDMS1                             00000001
MDMS2                             00000002
MDMS3                             00000003
MDMSODIS                          00000007
MPASM 5.71  /HOME/GARTHMADDEN/PIC_CODE/ADC_L   1-26-2017  21:48:43         PAGE 10


SYMBOL TABLE
  LABEL                             VALUE 

MDOE                              00000006
MDOPOL                            00000004
MDOUT_MDCON                       00000003
MDOUT_PORTA                       00000000
MDSLR                             00000005
MDSRC                             0000039D
MFIOFR                            00000002
NANSWER                           0000000B
NOT_BOR                           00000000
NOT_DONE                          00000001
NOT_MCLR                          00000003
NOT_PD                            00000003
NOT_POR                           00000001
NOT_RI                            00000002
NOT_RMCLR                         00000003
NOT_T1SYNC                        00000002
NOT_TO                            00000004
NOT_WPUEN                         00000007
OERR                              00000001
ONE                               0000000C
OPTION_REG                        00000095
OSC1                              00000005
OSC2                              00000004
OSCCON                            00000099
OSCSTAT                           0000009A
OSCTUNE                           00000098
OSFIE                             00000007
OSFIF                             00000007
OSTS                              00000005
P                                 00000004
P1BSEL                            00000001
P1DC0                             00000000
P1DC1                             00000001
P1DC2                             00000002
P1DC3                             00000003
P1DC4                             00000004
P1DC5                             00000005
P1DC6                             00000006
P1M0                              00000006
P1M1                              00000007
P1RSEN                            00000007
PCIE                              00000006
PCL                               00000002
PCLATH                            0000000A
PCLATH_SHAD                       00000FE7
PCON                              00000096
PEIE                              00000006
PEN                               00000002
PIE1                              00000091
PIE2                              00000092
PIR1                              00000011
PIR2                              00000012
PLLR                              00000006
MPASM 5.71  /HOME/GARTHMADDEN/PIC_CODE/ADC_L   1-26-2017  21:48:43         PAGE 11


SYMBOL TABLE
  LABEL                             VALUE 

PORTA                             0000000C
PR2                               0000001B
PS0                               00000000
PS1                               00000001
PS2                               00000002
PSA                               00000003
PSS1AC0                           00000002
PSS1AC1                           00000003
PSS1BD0                           00000000
PSS1BD1                           00000001
PSTR1CON                          00000296
PWM1CON                           00000294
RA0                               00000000
RA1                               00000001
RA2                               00000002
RA3                               00000003
RA4                               00000004
RA5                               00000005
RCEN                              00000003
RCIDL                             00000006
RCIE                              00000005
RCIF                              00000005
RCREG                             00000199
RCSTA                             0000019D
RD                                00000000
RSEN                              00000001
RX9                               00000006
RX9D                              00000000
RXDTSEL                           00000007
R_NOT_W                           00000002
S                                 00000003
SBCDE                             00000002
SBOREN                            00000007
SCIE                              00000005
SCK                               00000001
SCKP                              00000004
SCL                               00000001
SCS0                              00000000
SCS1                              00000001
SDA                               00000002
SDAHT                             00000003
SDI                               00000002
SDO1SEL                           00000006
SDOSEL                            00000006
SEN                               00000000
SENDB                             00000003
SMP                               00000007
SP1BRG                            0000019B
SP1BRGH                           0000019C
SP1BRGL                           0000019B
SPBRG                             0000019B
SPBRGH                            0000019C
SPBRGL                            0000019B
MPASM 5.71  /HOME/GARTHMADDEN/PIC_CODE/ADC_L   1-26-2017  21:48:43         PAGE 12


SYMBOL TABLE
  LABEL                             VALUE 

SPEN                              00000007
SPLLEN                            00000007
SRCLK0                            00000004
SRCLK1                            00000005
SRCLK2                            00000006
SRCON0                            0000011A
SRCON1                            0000011B
SREN                              00000005
SRI                               00000001
SRLEN                             00000007
SRNQ                              00000005
SRNQEN                            00000002
SRPR                              00000000
SRPS                              00000001
SRQ                               00000002
SRQEN                             00000003
SRRC1E                            00000000
SRRCKE                            00000002
SRRPE                             00000003
SRSC1E                            00000004
SRSCKE                            00000006
SRSPE                             00000007
SS1SEL                            00000005
SSP1ADD                           00000212
SSP1BUF                           00000211
SSP1CON1                          00000215
SSP1CON2                          00000216
SSP1CON3                          00000217
SSP1IE                            00000003
SSP1IF                            00000003
SSP1MSK                           00000213
SSP1STAT                          00000214
SSPADD                            00000212
SSPBUF                            00000211
SSPCON                            00000215
SSPCON1                           00000215
SSPCON2                           00000216
SSPCON3                           00000217
SSPEN                             00000005
SSPM0                             00000000
SSPM1                             00000001
SSPM2                             00000002
SSPM3                             00000003
SSPMSK                            00000213
SSPOV                             00000006
SSPSTAT                           00000214
SSSEL                             00000005
START                             00000000
STATUS                            00000003
STATUS_SHAD                       00000FE4
STKOVF                            00000007
STKPTR                            00000FED
STKUNF                            00000006
MPASM 5.71  /HOME/GARTHMADDEN/PIC_CODE/ADC_L   1-26-2017  21:48:43         PAGE 13


SYMBOL TABLE
  LABEL                             VALUE 

STR1A                             00000000
STR1B                             00000001
STR1C                             00000002
STR1D                             00000003
STR1SYNC                          00000004
SWDTEN                            00000000
SYNC                              00000004
T0CKI                             00000002
T0CS                              00000005
T0IE                              00000005
T0IF                              00000002
T0SE                              00000004
T0XCS                             00000000
T1CKI                             00000005
T1CKPS0                           00000004
T1CKPS1                           00000005
T1CON                             00000018
T1GCON                            00000019
T1GGO                             00000003
T1GGO_NOT_DONE                    00000003
T1GPOL                            00000006
T1GSEL                            00000003
T1GSPM                            00000004
T1GSS0                            00000000
T1GSS1                            00000001
T1GTM                             00000005
T1GVAL                            00000002
T1OSCEN                           00000003
T1OSCR                            00000007
T1OSI                             00000005
T1OSO                             00000004
T2CKPS0                           00000000
T2CKPS1                           00000001
T2CON                             0000001C
T2OUTPS0                          00000003
T2OUTPS1                          00000004
T2OUTPS2                          00000005
T2OUTPS3                          00000006
TEMP                              00000006
TEMP2                             0000000A
TEST                              00000000
TEST1                             00000008
TEST2                             00000009
THAT                              00000001
THIS                              00000000
THREE                             0000000E
TMR0                              00000015
TMR0CS                            00000005
TMR0IE                            00000005
TMR0IF                            00000002
TMR0SE                            00000004
TMR1                              00000016
TMR1CS0                           00000006
MPASM 5.71  /HOME/GARTHMADDEN/PIC_CODE/ADC_L   1-26-2017  21:48:43         PAGE 14


SYMBOL TABLE
  LABEL                             VALUE 

TMR1CS1                           00000007
TMR1GE                            00000007
TMR1GIE                           00000007
TMR1GIF                           00000007
TMR1H                             00000017
TMR1IE                            00000000
TMR1IF                            00000000
TMR1L                             00000016
TMR1ON                            00000000
TMR2                              0000001A
TMR2IE                            00000001
TMR2IF                            00000001
TMR2ON                            00000002
TOSH                              00000FEF
TOSL                              00000FEE
TRISA                             0000008C
TRISA0                            00000000
TRISA1                            00000001
TRISA2                            00000002
TRISA3                            00000003
TRISA4                            00000004
TRISA5                            00000005
TRMT                              00000001
TSEN                              00000005
TSRNG                             00000004
TUN0                              00000000
TUN1                              00000001
TUN2                              00000002
TUN3                              00000003
TUN4                              00000004
TUN5                              00000005
TWO                               0000000D
TX9                               00000006
TX9D                              00000000
TXCKSEL                           00000002
TXEN                              00000005
TXIE                              00000004
TXIF                              00000004
TXREG                             0000019A
TXSTA                             0000019E
UA                                00000001
USART_INIT                        00000000
W                                 00000000
WCOL                              00000007
WDTCON                            00000097
WDTPS0                            00000001
WDTPS1                            00000002
WDTPS2                            00000003
WDTPS3                            00000004
WDTPS4                            00000005
WPUA                              0000020C
WPUA0                             00000000
WPUA1                             00000001
MPASM 5.71  /HOME/GARTHMADDEN/PIC_CODE/ADC_L   1-26-2017  21:48:43         PAGE 15


SYMBOL TABLE
  LABEL                             VALUE 

WPUA2                             00000002
WPUA3                             00000003
WPUA4                             00000004
WPUA5                             00000005
WR                                00000001
WREG                              00000009
WREG_SHAD                         00000FE5
WREN                              00000002
WRERR                             00000003
WRITE                             00000002
WUE                               00000001
Z                                 00000002
Z_SHAD                            00000002
_BOREN_NSLEEP                     00003DFF
_BOREN_OFF                        000039FF
_BOREN_ON                         00003FFF
_BOREN_SBODEN                     00003BFF
_BORV_19                          00003FFF
_BORV_HI                          00003BFF
_BORV_LO                          00003FFF
_CLKOUTEN_OFF                     00003FFF
_CLKOUTEN_ON                      000037FF
_CONFIG1                          00008007
_CONFIG2                          00008008
_CPD_OFF                          00003FFF
_CPD_ON                           00003EFF
_CP_OFF                           00003FFF
_CP_ON                            00003F7F
_DEVID1                           00008006
_FCMEN_OFF                        00001FFF
_FCMEN_ON                         00003FFF
_FOSC_ECH                         00003FFF
_FOSC_ECL                         00003FFD
_FOSC_ECM                         00003FFE
_FOSC_EXTRC                       00003FFB
_FOSC_HS                          00003FFA
_FOSC_INTOSC                      00003FFC
_FOSC_LP                          00003FF8
_FOSC_XT                          00003FF9
_IDLOC0                           00008000
_IDLOC1                           00008001
_IDLOC2                           00008002
_IDLOC3                           00008003
_IESO_OFF                         00002FFF
_IESO_ON                          00003FFF
_LVP_OFF                          00001FFF
_LVP_ON                           00003FFF
_MCLRE_OFF                        00003FBF
_MCLRE_ON                         00003FFF
_PLLEN_OFF                        00003EFF
_PLLEN_ON                         00003FFF
_PWRTE_OFF                        00003FFF
_PWRTE_ON                         00003FDF
MPASM 5.71  /HOME/GARTHMADDEN/PIC_CODE/ADC_L   1-26-2017  21:48:43         PAGE 16


SYMBOL TABLE
  LABEL                             VALUE 

_STVREN_OFF                       00003DFF
_STVREN_ON                        00003FFF
_WDTE_NSLEEP                      00003FF7
_WDTE_OFF                         00003FE7
_WDTE_ON                          00003FFF
_WDTE_SWDTEN                      00003FEF
_WRT_ALL                          00003FFC
_WRT_BOOT                         00003FFE
_WRT_HALF                         00003FFD
_WRT_OFF                          00003FFF
__12LF1822                        00000001

Errors   :     0
Warnings :     0 reported,     0 suppressed
Messages :     0 reported,     8 suppressed

